target datalayout = "e-m:e-p270:32:32-p271:32:32-p272:64:64-i64:64-i128:128-f80:128-n8:16:32:64-S128"
target triple = "x86_64-pc-linux-gnu"

@.str.1 = private unnamed_addr constant [101 x i8] c"generated/home/dtcxzyw/WorkSpace/Projects/compilers/llvm-opt-benchmark/bench/hdf5/hdf5/src/H5Pdxpl.c\00", align 1
@H5E_PLIST_g = external global i64, align 8
@__func__.H5P__dxfr_xform_set = private unnamed_addr constant [20 x i8] c"H5P__dxfr_xform_set\00", align 1
@H5E_CANTCOPY_g = external global i64, align 8
@.str.71 = private unnamed_addr constant [38 x i8] c"error copying the data transform info\00", align 1

; Function Attrs: nounwind uwtable
define internal i32 @H5P__dxfr_xform_set(i64 noundef %0, ptr noundef %1, i64 noundef %2, ptr noundef %3) #0 {
  %5 = alloca i64, align 8
  %6 = alloca ptr, align 8
  %7 = alloca i64, align 8
  %8 = alloca ptr, align 8
  %9 = alloca i32, align 4
  %10 = alloca i8, align 1
  store i64 %0, ptr %5, align 8
  store ptr %1, ptr %6, align 8
  store i64 %2, ptr %7, align 8
  store ptr %3, ptr %8, align 8
  store i32 0, ptr %9, align 4
  store i8 0, ptr %10, align 1
  %11 = load ptr, ptr %8, align 8
  %12 = call i32 @H5Z_xform_copy(ptr noundef %11)
  %13 = icmp slt i32 %12, 0
  br i1 %13, label %14, label %29

14:                                               ; preds = %4
  br label %15

15:                                               ; preds = %14
  br label %16

16:                                               ; preds = %15
  br label %17

17:                                               ; preds = %16
  %18 = load i64, ptr @H5E_PLIST_g, align 8
  %19 = load i64, ptr @H5E_CANTCOPY_g, align 8
  %20 = call i32 (ptr, ptr, i32, i64, i64, ptr, ...) @H5E_printf_stack(ptr noundef @.str.1, ptr noundef @__func__.H5P__dxfr_xform_set, i32 noundef 667, i64 noundef %18, i64 noundef %19, ptr noundef @.str.71)
  br label %21

21:                                               ; preds = %17
  store i8 1, ptr %10, align 1
  %22 = load i8, ptr %10, align 1
  %23 = trunc i8 %22 to i1
  %24 = zext i1 %23 to i8
  store i8 %24, ptr %10, align 1
  br label %25

25:                                               ; preds = %21
  br label %26

26:                                               ; preds = %25
  store i32 -1, ptr %9, align 4
  br label %30

27:                                               ; No predecessors!
  br label %28

28:                                               ; preds = %27
  br label %29

29:                                               ; preds = %28, %4
  br label %30

30:                                               ; preds = %29, %26
  %31 = load i32, ptr %9, align 4
  ret i32 %31
}