; Function Attrs: nounwind uwtable
define internal range(i32 -1, 1) i32 @H5P__dxfr_xform_set(i64 %0, ptr nocapture readnone %1, i64 %2, ptr noundef %3) #0 {
  %5 = tail call i32 @H5Z_xform_copy(ptr noundef %3) #8
  %6 = icmp slt i32 %5, 0
  br i1 %6, label %7, label %11

7:                                                ; preds = %4
  %8 = load i64, ptr @H5E_PLIST_g, align 8
  %9 = load i64, ptr @H5E_CANTCOPY_g, align 8
  %10 = tail call i32 (ptr, ptr, i32, i64, i64, ptr, ...) @H5E_printf_stack(ptr noundef nonnull @.str.1, ptr noundef nonnull @__func__.H5P__dxfr_xform_set, i32 noundef 667, i64 noundef %8, i64 noundef %9, ptr noundef nonnull @.str.71) #8
  br label %11

11:                                               ; preds = %4, %7
  %.0 = phi i32 [ -1, %7 ], [ 0, %4 ]
  ret i32 %.0
}